; Function Attrs: mustprogress uwtable
define internal fastcc noundef zeroext i1 @_ZNK12_GLOBAL__N_14Grid17getLongLatZOffsetEiiRdS1_S1_(ptr nocapture noundef nonnull align 8 dereferenceable(72) %0, i32 noundef %1, i32 noundef %2, ptr nocapture noundef nonnull writeonly align 8 dereferenceable(8) %3, ptr nocapture noundef nonnull writeonly align 8 dereferenceable(8) %4, ptr nocapture noundef nonnull writeonly align 8 dereferenceable(8) %5) unnamed_addr #6 align 2 {
  %7 = alloca float, align 4
  %8 = alloca float, align 4
  call void @llvm.lifetime.start.p0(i64 4, ptr nonnull %7)
  call void @llvm.lifetime.start.p0(i64 4, ptr nonnull %8)
  %9 = tail call fastcc noundef zeroext i1 @_ZNK12_GLOBAL__N_14Grid15checkHorizontalERKNSt7__cxx1112basic_stringIcSt11char_traitsIcESaIcEEE(ptr noundef nonnull align 8 dereferenceable(72) %0, ptr noundef nonnull align 8 dereferenceable(32) @_ZN16DeformationModelL10STR_DEGREEB5cxx11E)
  br i1 %9, label %10, label %_ZNK12_GLOBAL__N_14Grid16getLongLatOffsetEiiRdS1_.exit.thread

10:                                               ; preds = %6
  %11 = getelementptr inbounds i8, ptr %0, i64 48
  %12 = load ptr, ptr %11, align 8
  %13 = getelementptr inbounds i8, ptr %0, i64 60
  %14 = load i32, ptr %13, align 4
  %15 = load ptr, ptr %12, align 8
  %16 = getelementptr inbounds i8, ptr %15, i64 72
  %17 = load ptr, ptr %16, align 8
  %18 = call noundef zeroext i1 %17(ptr noundef nonnull align 8 dereferenceable(144) %12, i32 noundef %1, i32 noundef %2, i32 noundef %14, ptr noundef nonnull align 4 dereferenceable(4) %7)
  br i1 %18, label %19, label %_ZNK12_GLOBAL__N_14Grid16getLongLatOffsetEiiRdS1_.exit.thread

19:                                               ; preds = %10
  %20 = load ptr, ptr %11, align 8
  %21 = getelementptr inbounds i8, ptr %0, i64 64
  %22 = load i32, ptr %21, align 8
  %23 = load ptr, ptr %20, align 8
  %24 = getelementptr inbounds i8, ptr %23, i64 72
  %25 = load ptr, ptr %24, align 8
  %26 = call noundef zeroext i1 %25(ptr noundef nonnull align 8 dereferenceable(144) %20, i32 noundef %1, i32 noundef %2, i32 noundef %22, ptr noundef nonnull align 4 dereferenceable(4) %8)
  br i1 %26, label %27, label %_ZNK12_GLOBAL__N_14Grid16getLongLatOffsetEiiRdS1_.exit.thread

_ZNK12_GLOBAL__N_14Grid16getLongLatOffsetEiiRdS1_.exit.thread: ; preds = %6, %19, %10
  call void @llvm.lifetime.end.p0(i64 4, ptr nonnull %7)
  call void @llvm.lifetime.end.p0(i64 4, ptr nonnull %8)
  br label %35

27:                                               ; preds = %19
  %28 = load float, ptr %7, align 4
  %29 = fpext float %28 to double
  %30 = fmul double %29, 0x3F91DF46A2529D39
  store double %30, ptr %3, align 8
  %31 = load float, ptr %8, align 4
  %32 = fpext float %31 to double
  %33 = fmul double %32, 0x3F91DF46A2529D39
  store double %33, ptr %4, align 8
  call void @llvm.lifetime.end.p0(i64 4, ptr nonnull %7)
  call void @llvm.lifetime.end.p0(i64 4, ptr nonnull %8)
  %34 = call fastcc noundef zeroext i1 @_ZNK12_GLOBAL__N_14Grid10getZOffsetEiiRd(ptr noundef nonnull align 8 dereferenceable(72) %0, i32 noundef %1, i32 noundef %2, ptr noundef nonnull align 8 dereferenceable(8) %5)
  br label %35

35:                                               ; preds = %_ZNK12_GLOBAL__N_14Grid16getLongLatOffsetEiiRdS1_.exit.thread, %27
  %36 = phi i1 [ %34, %27 ], [ false, %_ZNK12_GLOBAL__N_14Grid16getLongLatOffsetEiiRdS1_.exit.thread ]
  ret i1 %36
}